target datalayout = "e-m:e-p270:32:32-p271:32:32-p272:64:64-i64:64-i128:128-f80:128-n8:16:32:64-S128"
target triple = "x86_64-pc-linux-gnu"

%struct.Abc_Ntk_t_ = type { i32, i32, ptr, ptr, ptr, ptr, ptr, ptr, ptr, ptr, ptr, ptr, ptr, [11 x i32], i32, i32, i32, i32, ptr, i32, ptr, ptr, i32, i32, i32, double, i32, %struct.Vec_Int_t_, ptr, ptr, ptr, ptr, ptr, float, i32, ptr, ptr, ptr, ptr, ptr, ptr, ptr, ptr, ptr, ptr, ptr, ptr, ptr, ptr, ptr, ptr, ptr, ptr, ptr, ptr, ptr, ptr }
%struct.Vec_Int_t_ = type { i32, i32, ptr }
%struct.Vec_Ptr_t_ = type { i32, i32, ptr }
%struct.Ver_Bundle_t_ = type { ptr, ptr }
%struct.Abc_Obj_t_ = type { ptr, ptr, i32, i32, %struct.Vec_Int_t_, %struct.Vec_Int_t_, %union.anon, %union.anon.0 }
%union.anon = type { ptr }
%union.anon.0 = type { ptr }

; Function Attrs: inlinehint nounwind uwtable
define internal i32 @Abc_ObjFaninNum(ptr noundef %0) #6 {
  %2 = alloca ptr, align 8
  store ptr %0, ptr %2, align 8, !tbaa !58
  %3 = load ptr, ptr %2, align 8, !tbaa !58
  %4 = getelementptr inbounds nuw %struct.Abc_Obj_t_, ptr %3, i32 0, i32 4
  %5 = getelementptr inbounds nuw %struct.Vec_Int_t_, ptr %4, i32 0, i32 1
  %6 = load i32, ptr %5, align 4, !tbaa !130
  ret i32 %6
}

; Function Attrs: inlinehint nounwind uwtable
define internal ptr @Vec_PtrEntry(ptr noundef %0, i32 noundef %1) #6 {
  %3 = alloca ptr, align 8
  %4 = alloca i32, align 4
  store ptr %0, ptr %3, align 8, !tbaa !74
  store i32 %1, ptr %4, align 4, !tbaa !10
  %5 = load ptr, ptr %3, align 8, !tbaa !74
  %6 = getelementptr inbounds nuw %struct.Vec_Ptr_t_, ptr %5, i32 0, i32 2
  %7 = load ptr, ptr %6, align 8, !tbaa !79
  %8 = load i32, ptr %4, align 4, !tbaa !10
  %9 = sext i32 %8 to i64
  %10 = getelementptr inbounds ptr, ptr %7, i64 %9
  %11 = load ptr, ptr %10, align 8, !tbaa !77
  ret ptr %11
}

; Function Attrs: inlinehint nounwind uwtable
define internal i32 @Vec_PtrSize(ptr noundef %0) #6 {
  %2 = alloca ptr, align 8
  store ptr %0, ptr %2, align 8, !tbaa !74
  %3 = load ptr, ptr %2, align 8, !tbaa !74
  %4 = getelementptr inbounds nuw %struct.Vec_Ptr_t_, ptr %3, i32 0, i32 1
  %5 = load i32, ptr %4, align 4, !tbaa !75
  ret i32 %5
}

; Function Attrs: nounwind uwtable
define i32 @Ver_ParseFormalNetsAreDriven(ptr noundef %0, ptr noundef %1) #0 {
  %3 = alloca i32, align 4
  %4 = alloca ptr, align 8
  %5 = alloca ptr, align 8
  %6 = alloca ptr, align 8
  %7 = alloca ptr, align 8
  %8 = alloca ptr, align 8
  %9 = alloca i32, align 4
  %10 = alloca i32, align 4
  %11 = alloca i32, align 4
  %12 = alloca i32, align 4
  store ptr %0, ptr %4, align 8, !tbaa !39
  store ptr %1, ptr %5, align 8, !tbaa !3
  call void @llvm.lifetime.start.p0(i64 8, ptr %6) #10
  store ptr null, ptr %6, align 8, !tbaa !85
  call void @llvm.lifetime.start.p0(i64 8, ptr %7) #10
  call void @llvm.lifetime.start.p0(i64 8, ptr %8) #10
  call void @llvm.lifetime.start.p0(i64 4, ptr %9) #10
  call void @llvm.lifetime.start.p0(i64 4, ptr %10) #10
  call void @llvm.lifetime.start.p0(i64 4, ptr %11) #10
  store i32 0, ptr %9, align 4, !tbaa !10
  br label %13

13:                                               ; preds = %94, %2
  %14 = load i32, ptr %9, align 4, !tbaa !10
  %15 = load ptr, ptr %4, align 8, !tbaa !39
  %16 = getelementptr inbounds nuw %struct.Abc_Ntk_t_, ptr %15, i32 0, i32 42
  %17 = load ptr, ptr %16, align 8, !tbaa !116
  %18 = call i32 @Vec_PtrSize(ptr noundef %17)
  %19 = icmp slt i32 %14, %18
  br i1 %19, label %20, label %26

20:                                               ; preds = %13
  %21 = load ptr, ptr %4, align 8, !tbaa !39
  %22 = getelementptr inbounds nuw %struct.Abc_Ntk_t_, ptr %21, i32 0, i32 42
  %23 = load ptr, ptr %22, align 8, !tbaa !116
  %24 = load i32, ptr %9, align 4, !tbaa !10
  %25 = call ptr @Vec_PtrEntry(ptr noundef %23, i32 noundef %24)
  store ptr %25, ptr %7, align 8, !tbaa !58
  br label %26

26:                                               ; preds = %20, %13
  %27 = phi i1 [ false, %13 ], [ true, %20 ]
  br i1 %27, label %28, label %97

28:                                               ; preds = %26
  %29 = load ptr, ptr %7, align 8, !tbaa !58
  %30 = getelementptr inbounds nuw %struct.Abc_Obj_t_, ptr %29, i32 0, i32 7
  %31 = load ptr, ptr %30, align 8, !tbaa !66
  %32 = call i32 @Vec_PtrSize(ptr noundef %31)
  %33 = sub nsw i32 %32, 1
  store i32 %33, ptr %10, align 4, !tbaa !10
  br label %34

34:                                               ; preds = %57, %28
  %35 = load i32, ptr %10, align 4, !tbaa !10
  %36 = icmp sge i32 %35, 0
  br i1 %36, label %37, label %43

37:                                               ; preds = %34
  %38 = load ptr, ptr %7, align 8, !tbaa !58
  %39 = getelementptr inbounds nuw %struct.Abc_Obj_t_, ptr %38, i32 0, i32 7
  %40 = load ptr, ptr %39, align 8, !tbaa !66
  %41 = load i32, ptr %10, align 4, !tbaa !10
  %42 = call ptr @Vec_PtrEntry(ptr noundef %40, i32 noundef %41)
  store ptr %42, ptr %6, align 8, !tbaa !85
  br label %43

43:                                               ; preds = %37, %34
  %44 = phi i1 [ false, %34 ], [ true, %37 ]
  br i1 %44, label %45, label %60

45:                                               ; preds = %43
  %46 = load ptr, ptr %6, align 8, !tbaa !85
  %47 = icmp ne ptr %46, null
  br i1 %47, label %48, label %56

48:                                               ; preds = %45
  %49 = load ptr, ptr %6, align 8, !tbaa !85
  %50 = getelementptr inbounds nuw %struct.Ver_Bundle_t_, ptr %49, i32 0, i32 0
  %51 = load ptr, ptr %50, align 8, !tbaa !87
  %52 = load ptr, ptr %5, align 8, !tbaa !3
  %53 = call i32 @strcmp(ptr noundef %51, ptr noundef %52) #12
  %54 = icmp ne i32 %53, 0
  br i1 %54, label %56, label %55

55:                                               ; preds = %48
  br label %60

56:                                               ; preds = %48, %45
  br label %57

57:                                               ; preds = %56
  %58 = load i32, ptr %10, align 4, !tbaa !10
  %59 = add nsw i32 %58, -1
  store i32 %59, ptr %10, align 4, !tbaa !10
  br label %34, !llvm.loop !131

60:                                               ; preds = %55, %43
  %61 = load i32, ptr %10, align 4, !tbaa !10
  %62 = load ptr, ptr %7, align 8, !tbaa !58
  %63 = getelementptr inbounds nuw %struct.Abc_Obj_t_, ptr %62, i32 0, i32 7
  %64 = load ptr, ptr %63, align 8, !tbaa !66
  %65 = call i32 @Vec_PtrSize(ptr noundef %64)
  %66 = icmp eq i32 %61, %65
  br i1 %66, label %67, label %68

67:                                               ; preds = %60
  br label %94

68:                                               ; preds = %60
  store i32 0, ptr %11, align 4, !tbaa !10
  br label %69

69:                                               ; preds = %90, %68
  %70 = load i32, ptr %11, align 4, !tbaa !10
  %71 = load ptr, ptr %6, align 8, !tbaa !85
  %72 = getelementptr inbounds nuw %struct.Ver_Bundle_t_, ptr %71, i32 0, i32 1
  %73 = load ptr, ptr %72, align 8, !tbaa !89
  %74 = call i32 @Vec_PtrSize(ptr noundef %73)
  %75 = icmp slt i32 %70, %74
  br i1 %75, label %76, label %82

76:                                               ; preds = %69
  %77 = load ptr, ptr %6, align 8, !tbaa !85
  %78 = getelementptr inbounds nuw %struct.Ver_Bundle_t_, ptr %77, i32 0, i32 1
  %79 = load ptr, ptr %78, align 8, !tbaa !89
  %80 = load i32, ptr %11, align 4, !tbaa !10
  %81 = call ptr @Vec_PtrEntry(ptr noundef %79, i32 noundef %80)
  store ptr %81, ptr %8, align 8, !tbaa !58
  br label %82

82:                                               ; preds = %76, %69
  %83 = phi i1 [ false, %69 ], [ true, %76 ]
  br i1 %83, label %84, label %93

84:                                               ; preds = %82
  %85 = load ptr, ptr %8, align 8, !tbaa !58
  %86 = call i32 @Abc_ObjFaninNum(ptr noundef %85)
  %87 = icmp sgt i32 %86, 0
  br i1 %87, label %88, label %89

88:                                               ; preds = %84
  store i32 1, ptr %3, align 4
  store i32 1, ptr %12, align 4
  br label %98

89:                                               ; preds = %84
  br label %90

90:                                               ; preds = %89
  %91 = load i32, ptr %11, align 4, !tbaa !10
  %92 = add nsw i32 %91, 1
  store i32 %92, ptr %11, align 4, !tbaa !10
  br label %69, !llvm.loop !132

93:                                               ; preds = %82
  br label %94

94:                                               ; preds = %93, %67
  %95 = load i32, ptr %9, align 4, !tbaa !10
  %96 = add nsw i32 %95, 1
  store i32 %96, ptr %9, align 4, !tbaa !10
  br label %13, !llvm.loop !133

97:                                               ; preds = %26
  store i32 0, ptr %3, align 4
  store i32 1, ptr %12, align 4
  br label %98

98:                                               ; preds = %97, %88
  call void @llvm.lifetime.end.p0(i64 4, ptr %11) #10
  call void @llvm.lifetime.end.p0(i64 4, ptr %10) #10
  call void @llvm.lifetime.end.p0(i64 4, ptr %9) #10
  call void @llvm.lifetime.end.p0(i64 8, ptr %8) #10
  call void @llvm.lifetime.end.p0(i64 8, ptr %7) #10
  call void @llvm.lifetime.end.p0(i64 8, ptr %6) #10
  %99 = load i32, ptr %3, align 4
  ret i32 %99
}