; Function Attrs: nofree nounwind memory(read, inaccessiblemem: none) uwtable
define range(i32 0, 2) i32 @Ver_ParseFormalNetsAreDriven(ptr noundef readonly captures(none) %0, ptr noundef readonly captures(none) %1) local_unnamed_addr #9 {
  %3 = getelementptr inbounds nuw i8, ptr %0, i64 344
  %4 = load ptr, ptr %3, align 8, !tbaa !72
  %5 = getelementptr i8, ptr %4, i64 4
  %.val34 = load i32, ptr %5, align 4, !tbaa !20
  %6 = icmp sgt i32 %.val34, 0
  br i1 %6, label %.lr.ph49, label %.critedge

.lr.ph49:                                         ; preds = %2
  %7 = getelementptr i8, ptr %4, i64 8
  %.val37 = load ptr, ptr %7, align 8, !tbaa !23
  %wide.trip.count58 = zext nneg i32 %.val34 to i64
  br label %8

8:                                                ; preds = %.lr.ph49, %.critedge4
  %indvars.iv55 = phi i64 [ 0, %.lr.ph49 ], [ %indvars.iv.next56, %.critedge4 ]
  %.02847 = phi ptr [ null, %.lr.ph49 ], [ %.263, %.critedge4 ]
  %9 = getelementptr inbounds nuw ptr, ptr %.val37, i64 %indvars.iv55
  %10 = load ptr, ptr %9, align 8, !tbaa !63
  %11 = getelementptr inbounds nuw i8, ptr %10, i64 64
  %12 = load ptr, ptr %11, align 8, !tbaa !73
  %13 = getelementptr i8, ptr %12, i64 4
  %.val33 = load i32, ptr %13, align 4, !tbaa !20
  %14 = icmp sgt i32 %.val33, 0
  br i1 %14, label %.lr.ph, label %.preheader

.lr.ph:                                           ; preds = %8
  %.02539 = add nsw i32 %.val33, -1
  %15 = getelementptr i8, ptr %12, i64 8
  %.val36 = load ptr, ptr %15, align 8, !tbaa !23
  %16 = zext nneg i32 %.02539 to i64
  br label %17

17:                                               ; preds = %.lr.ph, %23
  %indvars.iv = phi i64 [ %16, %.lr.ph ], [ %indvars.iv.next, %23 ]
  %18 = getelementptr inbounds nuw ptr, ptr %.val36, i64 %indvars.iv
  %19 = load ptr, ptr %18, align 8, !tbaa !63
  %.not = icmp eq ptr %19, null
  br i1 %.not, label %23, label %20

20:                                               ; preds = %17
  %21 = load ptr, ptr %19, align 8, !tbaa !80
  %22 = tail call i32 @strcmp(ptr noundef nonnull dereferenceable(1) %21, ptr noundef nonnull dereferenceable(1) %1) #22
  %.not30 = icmp eq i32 %22, 0
  br i1 %.not30, label %.critedge2.split.loop.exit, label %23

23:                                               ; preds = %17, %20
  %indvars.iv.next = add nsw i64 %indvars.iv, -1
  %24 = icmp sgt i64 %indvars.iv, 0
  br i1 %24, label %17, label %.critedge2, !llvm.loop !81

.critedge2.split.loop.exit:                       ; preds = %20
  %25 = trunc nuw nsw i64 %indvars.iv to i32
  br label %.critedge2

.critedge2:                                       ; preds = %23, %.critedge2.split.loop.exit
  %.025.lcssa = phi i32 [ %25, %.critedge2.split.loop.exit ], [ -1, %23 ]
  %26 = icmp eq i32 %.025.lcssa, %.val33
  br i1 %26, label %.critedge4, label %.preheader

.preheader:                                       ; preds = %8, %.critedge2
  %.262 = phi ptr [ %19, %.critedge2 ], [ %.02847, %8 ]
  %27 = getelementptr inbounds nuw i8, ptr %.262, i64 8
  %28 = load ptr, ptr %27, align 8, !tbaa !77
  %29 = getelementptr i8, ptr %28, i64 4
  %.val31 = load i32, ptr %29, align 4, !tbaa !20
  %30 = icmp sgt i32 %.val31, 0
  br i1 %30, label %.lr.ph46, label %.critedge4

.lr.ph46:                                         ; preds = %.preheader
  %31 = getelementptr i8, ptr %28, i64 8
  %.val35 = load ptr, ptr %31, align 8, !tbaa !23
  %wide.trip.count = zext nneg i32 %.val31 to i64
  br label %33

32:                                               ; preds = %33
  %indvars.iv.next53 = add nuw nsw i64 %indvars.iv52, 1
  %exitcond.not = icmp eq i64 %indvars.iv.next53, %wide.trip.count
  br i1 %exitcond.not, label %.critedge4, label %33, !llvm.loop !82

33:                                               ; preds = %.lr.ph46, %32
  %indvars.iv52 = phi i64 [ 0, %.lr.ph46 ], [ %indvars.iv.next53, %32 ]
  %34 = getelementptr inbounds nuw ptr, ptr %.val35, i64 %indvars.iv52
  %35 = load ptr, ptr %34, align 8, !tbaa !63
  %36 = getelementptr i8, ptr %35, i64 28
  %.val = load i32, ptr %36, align 4, !tbaa !79
  %37 = icmp sgt i32 %.val, 0
  br i1 %37, label %.critedge, label %32

.critedge4:                                       ; preds = %32, %.preheader, %.critedge2
  %.263 = phi ptr [ %.262, %.preheader ], [ %19, %.critedge2 ], [ %.262, %32 ]
  %indvars.iv.next56 = add nuw nsw i64 %indvars.iv55, 1
  %exitcond59.not = icmp eq i64 %indvars.iv.next56, %wide.trip.count58
  br i1 %exitcond59.not, label %.critedge, label %8, !llvm.loop !84

.critedge:                                        ; preds = %.critedge4, %33, %2
  %.027 = phi i32 [ 0, %2 ], [ 1, %33 ], [ 0, %.critedge4 ]
  ret i32 %.027
}